target datalayout = "e-m:e-p270:32:32-p271:32:32-p272:64:64-i64:64-i128:128-f80:128-n8:16:32:64-S128"
target triple = "x86_64-pc-linux-gnu"

%struct.FunctionCallInfoBaseData = type { ptr, ptr, ptr, i32, i8, i16, [0 x %struct.NullableDatum] }
%struct.NullableDatum = type { i64, i8 }
%struct.StringInfoData = type { ptr, i32, i32, i32 }
%struct.deparse_context = type { ptr, ptr, ptr, ptr, ptr, i32, i32, i32, i8, i8, i8, i8, ptr }

@.str.2 = private unnamed_addr constant [12 x i8] c"ruleutils.c\00", align 1
@.str.63 = private unnamed_addr constant [36 x i8] c"cache lookup failed for relation %u\00", align 1
@__func__.get_relation_name = private unnamed_addr constant [18 x i8] c"get_relation_name\00", align 1

; Function Attrs: inlinehint nounwind uwtable
define internal i64 @PointerGetDatum(ptr noundef %0) #2 {
  %2 = alloca ptr, align 8
  store ptr %0, ptr %2, align 8
  %3 = load ptr, ptr %2, align 8
  %4 = ptrtoint ptr %3 to i64
  ret i64 %4
}

; Function Attrs: nounwind uwtable
define internal ptr @string_to_text(ptr noundef %0) #0 {
  %2 = alloca ptr, align 8
  %3 = alloca ptr, align 8
  store ptr %0, ptr %2, align 8
  call void @llvm.lifetime.start.p0(i64 8, ptr %3) #10
  %4 = load ptr, ptr %2, align 8
  %5 = call ptr @cstring_to_text(ptr noundef %4)
  store ptr %5, ptr %3, align 8
  %6 = load ptr, ptr %2, align 8
  call void @pfree(ptr noundef %6)
  %7 = load ptr, ptr %3, align 8
  call void @llvm.lifetime.end.p0(i64 8, ptr %3) #10
  ret ptr %7
}

; Function Attrs: nounwind uwtable
define internal ptr @deparse_expression_pretty(ptr noundef %0, ptr noundef %1, i1 noundef zeroext %2, i1 noundef zeroext %3, i32 noundef %4, i32 noundef %5) #0 {
  %7 = alloca ptr, align 8
  %8 = alloca ptr, align 8
  %9 = alloca i8, align 1
  %10 = alloca i8, align 1
  %11 = alloca i32, align 4
  %12 = alloca i32, align 4
  %13 = alloca %struct.StringInfoData, align 8
  %14 = alloca %struct.deparse_context, align 8
  store ptr %0, ptr %7, align 8
  store ptr %1, ptr %8, align 8
  %15 = zext i1 %2 to i8
  store i8 %15, ptr %9, align 1
  %16 = zext i1 %3 to i8
  store i8 %16, ptr %10, align 1
  store i32 %4, ptr %11, align 4
  store i32 %5, ptr %12, align 4
  call void @llvm.lifetime.start.p0(i64 24, ptr %13) #10
  call void @llvm.lifetime.start.p0(i64 64, ptr %14) #10
  call void @initStringInfo(ptr noundef %13)
  %17 = getelementptr inbounds nuw %struct.deparse_context, ptr %14, i32 0, i32 0
  store ptr %13, ptr %17, align 8
  %18 = load ptr, ptr %8, align 8
  %19 = getelementptr inbounds nuw %struct.deparse_context, ptr %14, i32 0, i32 1
  store ptr %18, ptr %19, align 8
  %20 = getelementptr inbounds nuw %struct.deparse_context, ptr %14, i32 0, i32 2
  store ptr null, ptr %20, align 8
  %21 = getelementptr inbounds nuw %struct.deparse_context, ptr %14, i32 0, i32 3
  store ptr null, ptr %21, align 8
  %22 = getelementptr inbounds nuw %struct.deparse_context, ptr %14, i32 0, i32 4
  store ptr null, ptr %22, align 8
  %23 = load i8, ptr %9, align 1, !range !4, !noundef !5
  %24 = trunc i8 %23 to i1
  %25 = getelementptr inbounds nuw %struct.deparse_context, ptr %14, i32 0, i32 8
  %26 = zext i1 %24 to i8
  store i8 %26, ptr %25, align 4
  %27 = load i32, ptr %11, align 4
  %28 = getelementptr inbounds nuw %struct.deparse_context, ptr %14, i32 0, i32 5
  store i32 %27, ptr %28, align 8
  %29 = getelementptr inbounds nuw %struct.deparse_context, ptr %14, i32 0, i32 6
  store i32 0, ptr %29, align 4
  %30 = load i32, ptr %12, align 4
  %31 = getelementptr inbounds nuw %struct.deparse_context, ptr %14, i32 0, i32 7
  store i32 %30, ptr %31, align 8
  %32 = getelementptr inbounds nuw %struct.deparse_context, ptr %14, i32 0, i32 9
  store i8 1, ptr %32, align 1
  %33 = getelementptr inbounds nuw %struct.deparse_context, ptr %14, i32 0, i32 10
  store i8 0, ptr %33, align 2
  %34 = getelementptr inbounds nuw %struct.deparse_context, ptr %14, i32 0, i32 11
  store i8 0, ptr %34, align 1
  %35 = getelementptr inbounds nuw %struct.deparse_context, ptr %14, i32 0, i32 12
  store ptr null, ptr %35, align 8
  %36 = load ptr, ptr %7, align 8
  %37 = load i8, ptr %10, align 1, !range !4, !noundef !5
  %38 = trunc i8 %37 to i1
  call void @get_rule_expr(ptr noundef %36, ptr noundef %14, i1 noundef zeroext %38)
  %39 = getelementptr inbounds nuw %struct.StringInfoData, ptr %13, i32 0, i32 0
  %40 = load ptr, ptr %39, align 8
  call void @llvm.lifetime.end.p0(i64 64, ptr %14) #10
  call void @llvm.lifetime.end.p0(i64 24, ptr %13) #10
  ret ptr %40
}

; Function Attrs: nounwind uwtable
define internal ptr @get_relation_name(i32 noundef %0) #0 {
  %2 = alloca i32, align 4
  %3 = alloca ptr, align 8
  store i32 %0, ptr %2, align 4
  call void @llvm.lifetime.start.p0(i64 8, ptr %3) #10
  %4 = load i32, ptr %2, align 4
  %5 = call ptr @get_rel_name(i32 noundef %4)
  store ptr %5, ptr %3, align 8
  %6 = load ptr, ptr %3, align 8
  %7 = icmp ne ptr %6, null
  br i1 %7, label %20, label %8

8:                                                ; preds = %1
  br label %9

9:                                                ; preds = %8
  br i1 true, label %10, label %12

10:                                               ; preds = %9
  %11 = call zeroext i1 @errstart_cold(i32 noundef 21, ptr noundef null) #11
  br i1 %11, label %14, label %17

12:                                               ; preds = %9
  %13 = call zeroext i1 @errstart(i32 noundef 21, ptr noundef null)
  br i1 %13, label %14, label %17

14:                                               ; preds = %12, %10
  %15 = load i32, ptr %2, align 4
  %16 = call i32 (ptr, ...) @errmsg_internal(ptr noundef @.str.63, i32 noundef %15)
  call void @errfinish(ptr noundef @.str.2, i32 noundef 13049, ptr noundef @__func__.get_relation_name)
  br label %17

17:                                               ; preds = %14, %12, %10
  unreachable

18:                                               ; No predecessors!
  br label %19

19:                                               ; preds = %18
  br label %20

20:                                               ; preds = %19, %1
  %21 = load ptr, ptr %3, align 8
  call void @llvm.lifetime.end.p0(i64 8, ptr %3) #10
  ret ptr %21
}

; Function Attrs: inlinehint nounwind uwtable
define internal i32 @DatumGetObjectId(i64 noundef %0) #2 {
  %2 = alloca i64, align 8
  store i64 %0, ptr %2, align 8
  %3 = load i64, ptr %2, align 8
  %4 = trunc i64 %3 to i32
  ret i32 %4
}

; Function Attrs: nounwind uwtable
define dso_local i64 @pg_get_partition_constraintdef(ptr noundef %0) #0 {
  %2 = alloca i64, align 8
  %3 = alloca ptr, align 8
  %4 = alloca i32, align 4
  %5 = alloca ptr, align 8
  %6 = alloca i32, align 4
  %7 = alloca ptr, align 8
  %8 = alloca ptr, align 8
  %9 = alloca i32, align 4
  store ptr %0, ptr %3, align 8
  call void @llvm.lifetime.start.p0(i64 4, ptr %4) #10
  %10 = load ptr, ptr %3, align 8
  %11 = getelementptr inbounds nuw %struct.FunctionCallInfoBaseData, ptr %10, i32 0, i32 6
  %12 = getelementptr inbounds [0 x %struct.NullableDatum], ptr %11, i64 0, i64 0
  %13 = getelementptr inbounds nuw %struct.NullableDatum, ptr %12, i32 0, i32 0
  %14 = load i64, ptr %13, align 8
  %15 = call i32 @DatumGetObjectId(i64 noundef %14)
  store i32 %15, ptr %4, align 4
  call void @llvm.lifetime.start.p0(i64 8, ptr %5) #10
  call void @llvm.lifetime.start.p0(i64 4, ptr %6) #10
  call void @llvm.lifetime.start.p0(i64 8, ptr %7) #10
  call void @llvm.lifetime.start.p0(i64 8, ptr %8) #10
  %16 = load i32, ptr %4, align 4
  %17 = call ptr @get_partition_qual_relid(i32 noundef %16)
  store ptr %17, ptr %5, align 8
  %18 = load ptr, ptr %5, align 8
  %19 = icmp eq ptr %18, null
  br i1 %19, label %20, label %26

20:                                               ; preds = %1
  br label %21

21:                                               ; preds = %20
  %22 = load ptr, ptr %3, align 8
  %23 = getelementptr inbounds nuw %struct.FunctionCallInfoBaseData, ptr %22, i32 0, i32 4
  store i8 1, ptr %23, align 4
  store i64 0, ptr %2, align 8
  store i32 1, ptr %9, align 4
  br label %38

24:                                               ; No predecessors!
  br label %25

25:                                               ; preds = %24
  br label %26

26:                                               ; preds = %25, %1
  store i32 2, ptr %6, align 4
  %27 = load i32, ptr %4, align 4
  %28 = call ptr @get_relation_name(i32 noundef %27)
  %29 = load i32, ptr %4, align 4
  %30 = call ptr @deparse_context_for(ptr noundef %28, i32 noundef %29)
  store ptr %30, ptr %7, align 8
  %31 = load ptr, ptr %5, align 8
  %32 = load ptr, ptr %7, align 8
  %33 = load i32, ptr %6, align 4
  %34 = call ptr @deparse_expression_pretty(ptr noundef %31, ptr noundef %32, i1 noundef zeroext false, i1 noundef zeroext false, i32 noundef %33, i32 noundef 0)
  store ptr %34, ptr %8, align 8
  %35 = load ptr, ptr %8, align 8
  %36 = call ptr @string_to_text(ptr noundef %35)
  %37 = call i64 @PointerGetDatum(ptr noundef %36)
  store i64 %37, ptr %2, align 8
  store i32 1, ptr %9, align 4
  br label %38

38:                                               ; preds = %26, %21
  call void @llvm.lifetime.end.p0(i64 8, ptr %8) #10
  call void @llvm.lifetime.end.p0(i64 8, ptr %7) #10
  call void @llvm.lifetime.end.p0(i64 4, ptr %6) #10
  call void @llvm.lifetime.end.p0(i64 8, ptr %5) #10
  call void @llvm.lifetime.end.p0(i64 4, ptr %4) #10
  %39 = load i64, ptr %2, align 8
  ret i64 %39
}