; Function Attrs: nounwind uwtable
define dso_local i64 @pg_get_partition_constraintdef(ptr noundef captures(none) %0) local_unnamed_addr #0 {
  %2 = alloca %struct.StringInfoData, align 8
  %3 = alloca %struct.deparse_context, align 8
  %4 = getelementptr inbounds nuw i8, ptr %0, i64 32
  %5 = load i64, ptr %4, align 8
  %6 = trunc i64 %5 to i32
  %7 = tail call ptr @get_partition_qual_relid(i32 noundef %6) #11
  %8 = icmp eq ptr %7, null
  br i1 %8, label %9, label %11

9:                                                ; preds = %1
  %10 = getelementptr inbounds nuw i8, ptr %0, i64 28
  store i8 1, ptr %10, align 4
  br label %30

11:                                               ; preds = %1
  %12 = tail call ptr @get_rel_name(i32 noundef %6) #11
  %.not.i = icmp eq ptr %12, null
  br i1 %.not.i, label %13, label %get_relation_name.exit

13:                                               ; preds = %11
  %14 = tail call zeroext i1 @errstart_cold(i32 noundef 21, ptr noundef null) #12
  tail call void @llvm.assume(i1 %14)
  %15 = tail call i32 (ptr, ...) @errmsg_internal(ptr noundef nonnull @.str.63, i32 noundef %6) #11
  tail call void @errfinish(ptr noundef nonnull @.str.2, i32 noundef 13049, ptr noundef nonnull @__func__.get_relation_name) #11
  unreachable

get_relation_name.exit:                           ; preds = %11
  %16 = tail call ptr @deparse_context_for(ptr noundef nonnull %12, i32 noundef %6)
  call void @llvm.lifetime.start.p0(i64 24, ptr nonnull %2) #11
  call void @llvm.lifetime.start.p0(i64 64, ptr nonnull %3) #11
  call void @initStringInfo(ptr noundef nonnull %2) #11
  store ptr %2, ptr %3, align 8
  %17 = getelementptr inbounds nuw i8, ptr %3, i64 8
  store ptr %16, ptr %17, align 8
  %18 = getelementptr inbounds nuw i8, ptr %3, i64 16
  %19 = getelementptr inbounds nuw i8, ptr %3, i64 52
  call void @llvm.memset.p0.i64(ptr noundef nonnull align 8 dereferenceable(24) %18, i8 0, i64 24, i1 false)
  store i8 0, ptr %19, align 4
  %20 = getelementptr inbounds nuw i8, ptr %3, i64 40
  store i32 2, ptr %20, align 8
  %21 = getelementptr inbounds nuw i8, ptr %3, i64 44
  store i32 0, ptr %21, align 4
  %22 = getelementptr inbounds nuw i8, ptr %3, i64 48
  store i32 0, ptr %22, align 8
  %23 = getelementptr inbounds nuw i8, ptr %3, i64 53
  store i8 1, ptr %23, align 1
  %24 = getelementptr inbounds nuw i8, ptr %3, i64 54
  store i8 0, ptr %24, align 2
  %25 = getelementptr inbounds nuw i8, ptr %3, i64 55
  store i8 0, ptr %25, align 1
  %26 = getelementptr inbounds nuw i8, ptr %3, i64 56
  store ptr null, ptr %26, align 8
  call fastcc void @get_rule_expr(ptr noundef nonnull %7, ptr noundef nonnull %3, i1 noundef zeroext false)
  %27 = load ptr, ptr %2, align 8
  call void @llvm.lifetime.end.p0(i64 64, ptr nonnull %3) #11
  call void @llvm.lifetime.end.p0(i64 24, ptr nonnull %2) #11
  %28 = call ptr @cstring_to_text(ptr noundef %27) #11
  call void @pfree(ptr noundef %27) #11
  %29 = ptrtoint ptr %28 to i64
  br label %30

30:                                               ; preds = %get_relation_name.exit, %9
  %.0 = phi i64 [ 0, %9 ], [ %29, %get_relation_name.exit ]
  ret i64 %.0
}